; Function Attrs: mustprogress nofree norecurse nosync nounwind willreturn memory(argmem: readwrite) uwtable
define internal i32 @declClose(ptr noundef captures(none) %0, i32 noundef %1, ptr readnone captures(none) %2, ptr readnone captures(none) %3, ptr readnone captures(none) %4) #2 {
  switch i32 %1, label %15 [
    i32 15, label %6
    i32 17, label %9
  ]

6:                                                ; preds = %5
  %7 = getelementptr inbounds nuw i8, ptr %0, i64 12
  %8 = load i32, ptr %7, align 4, !tbaa !15
  br label %common.exit

9:                                                ; preds = %5
  %10 = getelementptr inbounds nuw i8, ptr %0, i64 20
  %11 = load i32, ptr %10, align 4, !tbaa !9
  %.not = icmp eq i32 %11, 0
  %12 = select i1 %.not, ptr @externalSubset1, ptr @internalSubset
  store ptr %12, ptr %0, align 8, !tbaa !3
  %13 = getelementptr inbounds nuw i8, ptr %0, i64 12
  %14 = load i32, ptr %13, align 4, !tbaa !15
  br label %common.exit

15:                                               ; preds = %5
  %16 = getelementptr inbounds nuw i8, ptr %0, i64 20
  %17 = load i32, ptr %16, align 4, !tbaa !9
  %18 = icmp eq i32 %17, 0
  %19 = icmp eq i32 %1, 28
  %or.cond.i = and i1 %19, %18
  br i1 %or.cond.i, label %common.exit, label %20

20:                                               ; preds = %15
  store ptr @error, ptr %0, align 8, !tbaa !3
  br label %common.exit

common.exit:                                      ; preds = %20, %15, %9, %6
  %.0 = phi i32 [ %14, %9 ], [ %8, %6 ], [ -1, %20 ], [ 59, %15 ]
  ret i32 %.0
}